target datalayout = "e-m:e-p270:32:32-p271:32:32-p272:64:64-i64:64-i128:128-f80:128-n8:16:32:64-S128"
target triple = "x86_64-pc-linux-gnu"

%struct._zval_struct = type { %union._zend_value, %union.anon.3, %union.anon.6 }
%union._zend_value = type { i64 }
%union.anon.3 = type { i32 }
%union.anon.6 = type { i32 }
%struct._zend_refcounted_h = type { i32, %union.anon }
%union.anon = type { i32 }
%struct._zend_stack = type { i32, i32, i32, ptr }
%struct._zend_string = type { %struct._zend_refcounted_h, i64, i64, [1 x i8] }
%struct._zend_execute_data = type { ptr, ptr, ptr, ptr, %struct._zval_struct, ptr, ptr, ptr, ptr }
%struct._zend_lex_state = type { i32, ptr, ptr, ptr, ptr, ptr, i32, %struct._zend_stack, %struct._zend_ptr_stack, %struct._zend_stack, ptr, i32, ptr, ptr, i64, ptr, i64, ptr, ptr, ptr, ptr, ptr, ptr, ptr }
%struct._zend_ptr_stack = type { i32, i32, ptr, ptr, i8 }
%struct._zend_file_handle = type { %union.anon.10, ptr, ptr, i8, i8, i8, ptr, i64 }
%union.anon.10 = type { %struct._zend_stream }
%struct._zend_stream = type { ptr, i32, ptr, ptr, ptr }

@zend_empty_string = external global ptr, align 8

; Function Attrs: nounwind uwtable
define hidden void @zif_php_strip_whitespace(ptr noundef %0, ptr noundef %1) #0 {
  %3 = alloca ptr, align 8
  %4 = alloca i64, align 8
  %5 = alloca ptr, align 8
  %6 = alloca ptr, align 8
  %7 = alloca i1, align 1
  %8 = alloca ptr, align 8
  %9 = alloca ptr, align 8
  %10 = alloca i8, align 1
  %11 = alloca i32, align 4
  %12 = alloca i8, align 1
  %13 = alloca ptr, align 8
  %14 = alloca ptr, align 8
  %15 = alloca i8, align 1
  %16 = alloca i32, align 4
  %17 = alloca i1, align 1
  %18 = alloca ptr, align 8
  %19 = alloca ptr, align 8
  %20 = alloca i8, align 1
  %21 = alloca i32, align 4
  %22 = alloca ptr, align 8
  %23 = alloca ptr, align 8
  %24 = alloca ptr, align 8
  %25 = alloca %struct._zend_lex_state, align 8
  %26 = alloca %struct._zend_file_handle, align 8
  %27 = alloca i32, align 4
  %28 = alloca i32, align 4
  %29 = alloca i32, align 4
  %30 = alloca i32, align 4
  %31 = alloca i32, align 4
  %32 = alloca ptr, align 8
  %33 = alloca ptr, align 8
  %34 = alloca i32, align 4
  %35 = alloca ptr, align 8
  %36 = alloca i8, align 1
  %37 = alloca i8, align 1
  %38 = alloca i32, align 4
  %39 = alloca ptr, align 8
  %40 = alloca ptr, align 8
  store ptr %0, ptr %22, align 8
  store ptr %1, ptr %23, align 8
  br label %41

41:                                               ; preds = %2
  store i32 0, ptr %27, align 4
  store i32 1, ptr %28, align 4
  store i32 1, ptr %29, align 4
  %42 = load ptr, ptr %22, align 8
  %43 = getelementptr inbounds %struct._zend_execute_data, ptr %42, i32 0, i32 4
  %44 = getelementptr inbounds %struct._zval_struct, ptr %43, i32 0, i32 2
  %45 = load i32, ptr %44, align 4
  store i32 %45, ptr %30, align 4
  store i32 0, ptr %31, align 4
  store ptr null, ptr %33, align 8
  store i32 0, ptr %34, align 4
  store ptr null, ptr %35, align 8
  store i8 0, ptr %36, align 1
  store i8 0, ptr %37, align 1
  store i32 0, ptr %38, align 4
  br label %46

46:                                               ; preds = %41
  %47 = load i32, ptr %30, align 4
  %48 = load i32, ptr %28, align 4
  %49 = icmp ult i32 %47, %48
  %50 = xor i1 %49, true
  %51 = xor i1 %50, true
  %52 = zext i1 %51 to i32
  %53 = sext i32 %52 to i64
  %54 = icmp ne i64 %53, 0
  br i1 %54, label %64, label %55

55:                                               ; preds = %46
  %56 = load i32, ptr %30, align 4
  %57 = load i32, ptr %29, align 4
  %58 = icmp ugt i32 %56, %57
  %59 = xor i1 %58, true
  %60 = xor i1 %59, true
  %61 = zext i1 %60 to i32
  %62 = sext i32 %61 to i64
  %63 = icmp ne i64 %62, 0
  br i1 %63, label %64, label %67

64:                                               ; preds = %55, %46
  %65 = load i32, ptr %28, align 4
  %66 = load i32, ptr %29, align 4
  call void @zend_wrong_parameters_count_error(i32 noundef %65, i32 noundef %66)
  store i32 1, ptr %38, align 4
  br label %197

67:                                               ; preds = %55
  %68 = load ptr, ptr %22, align 8
  %69 = getelementptr inbounds %struct._zval_struct, ptr %68, i64 4
  store ptr %69, ptr %32, align 8
  %70 = load i32, ptr %31, align 4
  %71 = add i32 %70, 1
  store i32 %71, ptr %31, align 4
  %72 = load i32, ptr %31, align 4
  %73 = load i32, ptr %28, align 4
  %74 = icmp ule i32 %72, %73
  br i1 %74, label %80, label %75

75:                                               ; preds = %67
  %76 = load i8, ptr %37, align 1
  %77 = trunc i8 %76 to i1
  %78 = zext i1 %77 to i32
  %79 = icmp eq i32 %78, 1
  br label %80

80:                                               ; preds = %75, %67
  %81 = phi i1 [ true, %67 ], [ %79, %75 ]
  call void @llvm.assume(i1 %81)
  %82 = load i32, ptr %31, align 4
  %83 = load i32, ptr %28, align 4
  %84 = icmp ugt i32 %82, %83
  br i1 %84, label %90, label %85

85:                                               ; preds = %80
  %86 = load i8, ptr %37, align 1
  %87 = trunc i8 %86 to i1
  %88 = zext i1 %87 to i32
  %89 = icmp eq i32 %88, 0
  br label %90

90:                                               ; preds = %85, %80
  %91 = phi i1 [ true, %80 ], [ %89, %85 ]
  call void @llvm.assume(i1 %91)
  %92 = load i8, ptr %37, align 1
  %93 = trunc i8 %92 to i1
  br i1 %93, label %94, label %105

94:                                               ; preds = %90
  %95 = load i32, ptr %31, align 4
  %96 = load i32, ptr %30, align 4
  %97 = icmp ugt i32 %95, %96
  %98 = xor i1 %97, true
  %99 = xor i1 %98, true
  %100 = zext i1 %99 to i32
  %101 = sext i32 %100 to i64
  %102 = icmp ne i64 %101, 0
  br i1 %102, label %103, label %104

103:                                              ; preds = %94
  br label %197

104:                                              ; preds = %94
  br label %105

105:                                              ; preds = %104, %90
  %106 = load ptr, ptr %32, align 8
  %107 = getelementptr inbounds %struct._zval_struct, ptr %106, i32 1
  store ptr %107, ptr %32, align 8
  %108 = load ptr, ptr %32, align 8
  store ptr %108, ptr %33, align 8
  %109 = load ptr, ptr %33, align 8
  %110 = load i32, ptr %31, align 4
  store ptr %109, ptr %18, align 8
  store ptr %24, ptr %19, align 8
  store i8 0, ptr %20, align 1
  store i32 %110, ptr %21, align 4
  %111 = load ptr, ptr %18, align 8
  %112 = load ptr, ptr %19, align 8
  %113 = load i8, ptr %20, align 1
  %114 = trunc i8 %113 to i1
  %115 = load i32, ptr %21, align 4
  store ptr %111, ptr %13, align 8
  store ptr %112, ptr %14, align 8
  %116 = zext i1 %114 to i8
  store i8 %116, ptr %15, align 1
  store i32 %115, ptr %16, align 4
  %117 = load ptr, ptr %13, align 8
  %118 = load ptr, ptr %14, align 8
  %119 = load i8, ptr %15, align 1
  %120 = trunc i8 %119 to i1
  %121 = load i32, ptr %16, align 4
  store ptr %117, ptr %8, align 8
  store ptr %118, ptr %9, align 8
  %122 = zext i1 %120 to i8
  store i8 %122, ptr %10, align 1
  store i32 %121, ptr %11, align 4
  store i8 0, ptr %12, align 1
  %123 = load ptr, ptr %8, align 8
  store ptr %123, ptr %5, align 8
  %124 = load ptr, ptr %5, align 8
  %125 = getelementptr inbounds %struct._zval_struct, ptr %124, i32 0, i32 1
  %126 = load i8, ptr %125, align 8
  %127 = zext i8 %126 to i32
  %128 = icmp eq i32 %127, 6
  br i1 %128, label %129, label %133

129:                                              ; preds = %105
  %130 = load ptr, ptr %8, align 8
  %131 = load ptr, ptr %130, align 8
  %132 = load ptr, ptr %9, align 8
  store ptr %131, ptr %132, align 8
  br label %158

133:                                              ; preds = %105
  %134 = load i8, ptr %10, align 1
  %135 = trunc i8 %134 to i1
  br i1 %135, label %136, label %145

136:                                              ; preds = %133
  %137 = load ptr, ptr %8, align 8
  store ptr %137, ptr %6, align 8
  %138 = load ptr, ptr %6, align 8
  %139 = getelementptr inbounds %struct._zval_struct, ptr %138, i32 0, i32 1
  %140 = load i8, ptr %139, align 8
  %141 = zext i8 %140 to i32
  %142 = icmp eq i32 %141, 1
  br i1 %142, label %143, label %145

143:                                              ; preds = %136
  %144 = load ptr, ptr %9, align 8
  store ptr null, ptr %144, align 8
  br label %158

145:                                              ; preds = %136, %133
  %146 = load i8, ptr %12, align 1
  %147 = trunc i8 %146 to i1
  br i1 %147, label %148, label %153

148:                                              ; preds = %145
  %149 = load ptr, ptr %8, align 8
  %150 = load ptr, ptr %9, align 8
  %151 = load i32, ptr %11, align 4
  %152 = call zeroext i1 @zend_flf_parse_arg_str_slow(ptr noundef %149, ptr noundef %150, i32 noundef %151) #12
  store i1 %152, ptr %7, align 1
  br label %159

153:                                              ; preds = %145
  %154 = load ptr, ptr %8, align 8
  %155 = load ptr, ptr %9, align 8
  %156 = load i32, ptr %11, align 4
  %157 = call zeroext i1 @zend_parse_arg_str_slow(ptr noundef %154, ptr noundef %155, i32 noundef %156) #12
  store i1 %157, ptr %7, align 1
  br label %159

158:                                              ; preds = %143, %129
  store i1 true, ptr %7, align 1
  br label %159

159:                                              ; preds = %158, %153, %148
  %160 = load i1, ptr %7, align 1
  br i1 %160, label %161, label %177

161:                                              ; preds = %159
  %162 = load ptr, ptr %19, align 8
  %163 = load ptr, ptr %162, align 8
  %164 = icmp ne ptr %163, null
  br i1 %164, label %165, label %178

165:                                              ; preds = %161
  %166 = load ptr, ptr %19, align 8
  %167 = load ptr, ptr %166, align 8
  %168 = getelementptr inbounds %struct._zend_string, ptr %167, i32 0, i32 3
  %169 = load ptr, ptr %19, align 8
  %170 = load ptr, ptr %169, align 8
  %171 = getelementptr inbounds %struct._zend_string, ptr %170, i32 0, i32 2
  %172 = load i64, ptr %171, align 8
  store ptr %168, ptr %3, align 8
  store i64 %172, ptr %4, align 8
  %173 = load i64, ptr %4, align 8
  %174 = load ptr, ptr %3, align 8
  %175 = call i64 @strlen(ptr noundef %174) #13
  %176 = icmp ne i64 %173, %175
  br i1 %176, label %177, label %178

177:                                              ; preds = %165, %159
  store i1 false, ptr %17, align 1
  br label %179

178:                                              ; preds = %165, %161
  store i1 true, ptr %17, align 1
  br label %179

179:                                              ; preds = %178, %177
  %180 = load i1, ptr %17, align 1
  %181 = xor i1 %180, true
  %182 = xor i1 %181, true
  %183 = xor i1 %182, true
  %184 = zext i1 %183 to i32
  %185 = sext i32 %184 to i64
  %186 = icmp ne i64 %185, 0
  br i1 %186, label %187, label %188

187:                                              ; preds = %179
  store i32 16, ptr %34, align 4
  store i32 9, ptr %38, align 4
  br label %197

188:                                              ; preds = %179
  %189 = load i32, ptr %31, align 4
  %190 = load i32, ptr %29, align 4
  %191 = icmp eq i32 %189, %190
  br i1 %191, label %195, label %192

192:                                              ; preds = %188
  %193 = load i32, ptr %29, align 4
  %194 = icmp eq i32 %193, -1
  br label %195

195:                                              ; preds = %192, %188
  %196 = phi i1 [ true, %188 ], [ %194, %192 ]
  call void @llvm.assume(i1 %196)
  br label %197

197:                                              ; preds = %195, %187, %103, %64
  %198 = load i32, ptr %38, align 4
  %199 = icmp ne i32 %198, 0
  %200 = xor i1 %199, true
  %201 = xor i1 %200, true
  %202 = zext i1 %201 to i32
  %203 = sext i32 %202 to i64
  %204 = icmp ne i64 %203, 0
  br i1 %204, label %205, label %211

205:                                              ; preds = %197
  %206 = load i32, ptr %38, align 4
  %207 = load i32, ptr %31, align 4
  %208 = load ptr, ptr %35, align 8
  %209 = load i32, ptr %34, align 4
  %210 = load ptr, ptr %33, align 8
  call void @zend_wrong_parameter_error(i32 noundef %206, i32 noundef %207, ptr noundef %208, i32 noundef %209, ptr noundef %210)
  br label %236

211:                                              ; preds = %197
  br label %212

212:                                              ; preds = %211
  %213 = call i32 @php_output_start_default()
  %214 = load ptr, ptr %24, align 8
  call void @zend_stream_init_filename_ex(ptr noundef %26, ptr noundef %214)
  call void @zend_save_lexical_state(ptr noundef %25)
  %215 = call i32 @open_file_for_scanning(ptr noundef %26)
  %216 = icmp eq i32 %215, -1
  br i1 %216, label %217, label %232

217:                                              ; preds = %212
  call void @zend_restore_lexical_state(ptr noundef %25)
  %218 = call i32 @php_output_end()
  call void @zend_destroy_file_handle(ptr noundef %26)
  br label %219

219:                                              ; preds = %217
  br label %220

220:                                              ; preds = %219
  br label %221

221:                                              ; preds = %220
  %222 = load ptr, ptr %23, align 8
  store ptr %222, ptr %39, align 8
  %223 = load ptr, ptr @zend_empty_string, align 8
  store ptr %223, ptr %40, align 8
  %224 = load ptr, ptr %40, align 8
  %225 = load ptr, ptr %39, align 8
  %226 = getelementptr inbounds %struct._zval_struct, ptr %225, i32 0, i32 0
  store ptr %224, ptr %226, align 8
  %227 = load ptr, ptr %39, align 8
  %228 = getelementptr inbounds %struct._zval_struct, ptr %227, i32 0, i32 1
  store i32 6, ptr %228, align 8
  br label %229

229:                                              ; preds = %221
  br label %230

230:                                              ; preds = %229
  br label %236

231:                                              ; No predecessors!
  br label %232

232:                                              ; preds = %231, %212
  call void @zend_strip()
  call void @zend_restore_lexical_state(ptr noundef %25)
  %233 = load ptr, ptr %23, align 8
  %234 = call i32 @php_output_get_contents(ptr noundef %233)
  %235 = call i32 @php_output_discard()
  call void @zend_destroy_file_handle(ptr noundef %26)
  br label %236

236:                                              ; preds = %232, %230, %205
  ret void
}