; Function Attrs: nounwind uwtable
define hidden void @zif_php_strip_whitespace(ptr noundef %0, ptr noundef %1) #0 {
  %3 = alloca ptr, align 8
  %4 = alloca %struct._zend_lex_state, align 8
  %5 = alloca %struct._zend_file_handle, align 8
  %6 = getelementptr inbounds i8, ptr %0, i64 44
  %7 = load i32, ptr %6, align 4
  %cond = icmp eq i32 %7, 1
  br i1 %cond, label %9, label %8

8:                                                ; preds = %2
  tail call void @zend_wrong_parameters_count_error(i32 noundef 1, i32 noundef 1) #18
  br label %24

9:                                                ; preds = %2
  %10 = getelementptr inbounds i8, ptr %0, i64 80
  %11 = getelementptr inbounds i8, ptr %0, i64 88
  %12 = load i8, ptr %11, align 8
  %13 = icmp eq i8 %12, 6
  br i1 %13, label %.critedge, label %15

.critedge:                                        ; preds = %9
  %14 = load ptr, ptr %10, align 8
  store ptr %14, ptr %3, align 8
  br label %17

15:                                               ; preds = %9
  %16 = call zeroext i1 @zend_parse_arg_str_slow(ptr noundef nonnull %10, ptr noundef nonnull %3, i32 noundef 1) #18
  br i1 %16, label %thread-pre-split, label %24

thread-pre-split:                                 ; preds = %15
  %.pr = load ptr, ptr %3, align 8
  br label %17

17:                                               ; preds = %thread-pre-split, %.critedge
  %18 = phi ptr [ %.pr, %thread-pre-split ], [ %14, %.critedge ]
  %.not73 = icmp eq ptr %18, null
  br i1 %.not73, label %25, label %19

19:                                               ; preds = %17
  %20 = getelementptr inbounds i8, ptr %18, i64 24
  %21 = getelementptr inbounds i8, ptr %18, i64 16
  %22 = load i64, ptr %21, align 8
  %23 = call i64 @strlen(ptr noundef nonnull dereferenceable(1) %20) #19
  %.not74 = icmp eq i64 %22, %23
  br i1 %.not74, label %25, label %24

24:                                               ; preds = %15, %19, %8
  %.069 = phi i32 [ 0, %8 ], [ 16, %19 ], [ 16, %15 ]
  %.068 = phi ptr [ null, %8 ], [ %10, %19 ], [ %10, %15 ]
  %.067 = phi i32 [ 0, %8 ], [ 1, %19 ], [ 1, %15 ]
  %.066 = phi i32 [ 1, %8 ], [ 9, %19 ], [ 9, %15 ]
  call void @zend_wrong_parameter_error(i32 noundef %.066, i32 noundef %.067, ptr noundef null, i32 noundef %.069, ptr noundef %.068) #18
  br label %37

25:                                               ; preds = %17, %19
  %26 = call i32 @php_output_start_default() #18
  %27 = load ptr, ptr %3, align 8
  call void @zend_stream_init_filename_ex(ptr noundef nonnull %5, ptr noundef %27) #18
  call void @zend_save_lexical_state(ptr noundef nonnull %4) #18
  %28 = call i32 @open_file_for_scanning(ptr noundef nonnull %5) #18
  %29 = icmp eq i32 %28, -1
  br i1 %29, label %30, label %34

30:                                               ; preds = %25
  call void @zend_restore_lexical_state(ptr noundef nonnull %4) #18
  %31 = call i32 @php_output_end() #18
  call void @zend_destroy_file_handle(ptr noundef nonnull %5) #18
  %32 = load ptr, ptr @zend_empty_string, align 8
  store ptr %32, ptr %1, align 8
  %33 = getelementptr inbounds i8, ptr %1, i64 8
  store i32 6, ptr %33, align 8
  br label %37

34:                                               ; preds = %25
  call void @zend_strip() #18
  call void @zend_restore_lexical_state(ptr noundef nonnull %4) #18
  %35 = call i32 @php_output_get_contents(ptr noundef %1) #18
  %36 = call i32 @php_output_discard() #18
  call void @zend_destroy_file_handle(ptr noundef nonnull %5) #18
  br label %37

37:                                               ; preds = %34, %30, %24
  ret void
}